; Function Attrs: nounwind uwtable
define void @lv_obj_get_scroll_end(ptr noundef %0, ptr nocapture noundef writeonly %1) local_unnamed_addr #0 {
  %3 = tail call ptr @lv_anim_get(ptr noundef %0, ptr noundef nonnull @scroll_x_anim) #5
  %.not = icmp eq ptr %3, null
  br i1 %.not, label %8, label %4

4:                                                ; preds = %2
  %5 = getelementptr inbounds nuw i8, ptr %3, i64 80
  %6 = load i32, ptr %5, align 8, !tbaa !27
  %7 = sub nsw i32 0, %6
  br label %lv_obj_get_scroll_x.exit

8:                                                ; preds = %2
  %9 = getelementptr inbounds nuw i8, ptr %0, i64 16
  %10 = load ptr, ptr %9, align 8, !tbaa !3
  %11 = icmp eq ptr %10, null
  br i1 %11, label %lv_obj_get_scroll_x.exit, label %12

12:                                               ; preds = %8
  %13 = getelementptr inbounds nuw i8, ptr %10, i64 48
  %14 = load i32, ptr %13, align 8, !tbaa !11
  %15 = sub nsw i32 0, %14
  br label %lv_obj_get_scroll_x.exit

lv_obj_get_scroll_x.exit:                         ; preds = %12, %8, %4
  %16 = phi i32 [ %7, %4 ], [ %15, %12 ], [ 0, %8 ]
  store i32 %16, ptr %1, align 4, !tbaa !29
  %17 = tail call ptr @lv_anim_get(ptr noundef %0, ptr noundef nonnull @scroll_y_anim) #5
  %.not11 = icmp eq ptr %17, null
  br i1 %.not11, label %22, label %18

18:                                               ; preds = %lv_obj_get_scroll_x.exit
  %19 = getelementptr inbounds nuw i8, ptr %17, i64 80
  %20 = load i32, ptr %19, align 8, !tbaa !27
  %21 = sub nsw i32 0, %20
  br label %lv_obj_get_scroll_y.exit

22:                                               ; preds = %lv_obj_get_scroll_x.exit
  %23 = getelementptr inbounds nuw i8, ptr %0, i64 16
  %24 = load ptr, ptr %23, align 8, !tbaa !3
  %25 = icmp eq ptr %24, null
  br i1 %25, label %lv_obj_get_scroll_y.exit, label %26

26:                                               ; preds = %22
  %27 = getelementptr inbounds nuw i8, ptr %24, i64 52
  %28 = load i32, ptr %27, align 4, !tbaa !17
  %29 = sub nsw i32 0, %28
  br label %lv_obj_get_scroll_y.exit

lv_obj_get_scroll_y.exit:                         ; preds = %26, %22, %18
  %30 = phi i32 [ %21, %18 ], [ %29, %26 ], [ 0, %22 ]
  %31 = getelementptr inbounds nuw i8, ptr %1, i64 4
  store i32 %30, ptr %31, align 4, !tbaa !30
  ret void
}